target datalayout = "e-m:e-p270:32:32-p271:32:32-p272:64:64-i64:64-i128:128-f80:128-n8:16:32:64-S128"
target triple = "x86_64-pc-linux-gnu"

%"class.datalog::mk_slice" = type { %"class.datalog::rule_transformer::plugin", ptr, ptr, ptr, %class.svector, %class.svector, %class.ref_vector, %class.svector, %class.obj_map, %class.obj_map.1, %class.ref_vector.6, ptr, ptr }
%"class.datalog::rule_transformer::plugin" = type { ptr, i32, i8, ptr }
%class.ref_vector = type { %class.ref_vector_core }
%class.ref_vector_core = type { %class.ref_manager_wrapper, %class.ptr_vector }
%class.ref_manager_wrapper = type { ptr }
%class.ptr_vector = type { %class.vector.0 }
%class.vector.0 = type { ptr }
%class.svector = type { %class.vector }
%class.vector = type { ptr }
%class.obj_map = type { %class.core_hashtable }
%class.core_hashtable = type <{ ptr, i32, i32, i32, [4 x i8] }>
%class.obj_map.1 = type { %class.core_hashtable.2 }
%class.core_hashtable.2 = type <{ ptr, i32, i32, i32, [4 x i8] }>
%class.ref_vector.6 = type { %class.ref_vector_core.7 }
%class.ref_vector_core.7 = type { %class.ref_manager_wrapper.8, %class.ptr_vector.9 }
%class.ref_manager_wrapper.8 = type { ptr }
%class.ptr_vector.9 = type { %class.vector.10 }
%class.vector.10 = type { ptr }
%class.bit_vector = type { i32, i32, ptr }
%class.ast = type { i32, i32, i32, i32 }
%class.app = type { %class.expr, ptr, i32, %struct.app_flags, [0 x ptr] }
%class.expr = type { %class.ast }
%struct.app_flags = type <{ i16, i8, i8 }>
%class.var = type { %class.expr, i32, ptr }

; Function Attrs: mustprogress nounwind uwtable
define linkonce_odr hidden noundef nonnull align 4 dereferenceable(4) ptr @_ZN10bit_vector12get_bit_wordEj(ptr noundef nonnull align 8 dereferenceable(16) %0, i32 noundef %1) #5 comdat align 2 {
  %3 = alloca ptr, align 8
  %4 = alloca i32, align 4
  store ptr %0, ptr %3, align 8, !tbaa !246
  store i32 %1, ptr %4, align 4, !tbaa !50
  %5 = load ptr, ptr %3, align 8
  %6 = getelementptr inbounds nuw %class.bit_vector, ptr %5, i32 0, i32 2
  %7 = load ptr, ptr %6, align 8, !tbaa !251
  %8 = load i32, ptr %4, align 4, !tbaa !50
  %9 = udiv i32 %8, 32
  %10 = zext i32 %9 to i64
  %11 = getelementptr inbounds nuw i32, ptr %7, i64 %10
  ret ptr %11
}

; Function Attrs: mustprogress nounwind uwtable
define linkonce_odr hidden noundef i32 @_ZN10bit_vector12get_pos_maskEj(i32 noundef %0) #5 comdat align 2 {
  %2 = alloca i32, align 4
  store i32 %0, ptr %2, align 4, !tbaa !50
  %3 = load i32, ptr %2, align 4, !tbaa !50
  %4 = urem i32 %3, 32
  %5 = shl i32 1, %4
  ret i32 %5
}

; Function Attrs: mustprogress nounwind uwtable
define linkonce_odr hidden noundef i32 @_ZNK10bit_vector12get_bit_wordEj(ptr noundef nonnull align 8 dereferenceable(16) %0, i32 noundef %1) #5 comdat align 2 {
  %3 = alloca ptr, align 8
  %4 = alloca i32, align 4
  store ptr %0, ptr %3, align 8, !tbaa !246
  store i32 %1, ptr %4, align 4, !tbaa !50
  %5 = load ptr, ptr %3, align 8
  %6 = getelementptr inbounds nuw %class.bit_vector, ptr %5, i32 0, i32 2
  %7 = load ptr, ptr %6, align 8, !tbaa !251
  %8 = load i32, ptr %4, align 4, !tbaa !50
  %9 = udiv i32 %8, 32
  %10 = zext i32 %9 to i64
  %11 = getelementptr inbounds nuw i32, ptr %7, i64 %10
  %12 = load i32, ptr %11, align 4, !tbaa !50
  ret i32 %12
}

; Function Attrs: mustprogress nounwind uwtable
define linkonce_odr hidden noundef i32 @_ZNK3ast8get_kindEv(ptr noundef nonnull align 4 dereferenceable(16) %0) #5 comdat align 2 {
  %2 = alloca ptr, align 8
  store ptr %0, ptr %2, align 8, !tbaa !283
  %3 = load ptr, ptr %2, align 8
  %4 = getelementptr inbounds nuw %class.ast, ptr %3, i32 0, i32 1
  %5 = load i32, ptr %4, align 4
  %6 = and i32 %5, 65535
  ret i32 %6
}

; Function Attrs: mustprogress nounwind uwtable
define linkonce_odr hidden noundef ptr @_ZNK3app8get_declEv(ptr noundef nonnull align 8 dereferenceable(32) %0) #5 comdat align 2 {
  %2 = alloca ptr, align 8
  store ptr %0, ptr %2, align 8, !tbaa !265
  %3 = load ptr, ptr %2, align 8
  %4 = getelementptr inbounds nuw %class.app, ptr %3, i32 0, i32 1
  %5 = load ptr, ptr %4, align 8, !tbaa !408
  ret ptr %5
}

; Function Attrs: mustprogress uwtable
define linkonce_odr hidden void @_ZN10bit_vector5unsetEj(ptr noundef nonnull align 8 dereferenceable(16) %0, i32 noundef %1) #4 comdat align 2 {
  %3 = alloca ptr, align 8
  %4 = alloca i32, align 4
  store ptr %0, ptr %3, align 8, !tbaa !246
  store i32 %1, ptr %4, align 4, !tbaa !50
  %5 = load ptr, ptr %3, align 8
  %6 = load i32, ptr %4, align 4, !tbaa !50
  %7 = call noundef i32 @_ZN10bit_vector12get_pos_maskEj(i32 noundef %6)
  %8 = xor i32 %7, -1
  %9 = load i32, ptr %4, align 4, !tbaa !50
  %10 = call noundef nonnull align 4 dereferenceable(4) ptr @_ZN10bit_vector12get_bit_wordEj(ptr noundef nonnull align 8 dereferenceable(16) %5, i32 noundef %9)
  %11 = load i32, ptr %10, align 4, !tbaa !50
  %12 = and i32 %11, %8
  store i32 %12, ptr %10, align 4, !tbaa !50
  ret void
}

; Function Attrs: mustprogress uwtable
define linkonce_odr hidden noundef zeroext i1 @_ZNK10bit_vector3getEj(ptr noundef nonnull align 8 dereferenceable(16) %0, i32 noundef %1) #4 comdat align 2 {
  %3 = alloca ptr, align 8
  %4 = alloca i32, align 4
  %5 = alloca i8, align 1
  store ptr %0, ptr %3, align 8, !tbaa !246
  store i32 %1, ptr %4, align 4, !tbaa !50
  %6 = load ptr, ptr %3, align 8
  call void @llvm.lifetime.start.p0(i64 1, ptr %5) #3
  %7 = load i32, ptr %4, align 4, !tbaa !50
  %8 = call noundef i32 @_ZNK10bit_vector12get_bit_wordEj(ptr noundef nonnull align 8 dereferenceable(16) %6, i32 noundef %7)
  %9 = load i32, ptr %4, align 4, !tbaa !50
  %10 = call noundef i32 @_ZN10bit_vector12get_pos_maskEj(i32 noundef %9)
  %11 = and i32 %8, %10
  %12 = icmp ne i32 %11, 0
  %13 = zext i1 %12 to i8
  store i8 %13, ptr %5, align 1, !tbaa !51
  %14 = load i8, ptr %5, align 1, !tbaa !51, !range !53, !noundef !54
  %15 = trunc i8 %14 to i1
  call void @llvm.lifetime.end.p0(i64 1, ptr %5) #3
  ret i1 %15
}

; Function Attrs: mustprogress nounwind uwtable
define linkonce_odr hidden noundef nonnull align 1 dereferenceable(1) ptr @_ZN6vectorIbLb0EjEixEj(ptr noundef nonnull align 8 dereferenceable(8) %0, i32 noundef %1) #5 comdat align 2 {
  %3 = alloca ptr, align 8
  %4 = alloca i32, align 4
  store ptr %0, ptr %3, align 8, !tbaa !241
  store i32 %1, ptr %4, align 4, !tbaa !50
  %5 = load ptr, ptr %3, align 8
  %6 = getelementptr inbounds nuw %class.vector, ptr %5, i32 0, i32 0
  %7 = load ptr, ptr %6, align 8, !tbaa !289
  %8 = load i32, ptr %4, align 4, !tbaa !50
  %9 = zext i32 %8 to i64
  %10 = getelementptr inbounds nuw i8, ptr %7, i64 %9
  ret ptr %10
}

; Function Attrs: mustprogress nounwind uwtable
define linkonce_odr hidden noundef i32 @_ZNK3var7get_idxEv(ptr noundef nonnull align 8 dereferenceable(32) %0) #5 comdat align 2 {
  %2 = alloca ptr, align 8
  store ptr %0, ptr %2, align 8, !tbaa !285
  %3 = load ptr, ptr %2, align 8
  %4 = getelementptr inbounds nuw %class.var, ptr %3, i32 0, i32 1
  %5 = load i32, ptr %4, align 8, !tbaa !287
  ret i32 %5
}

; Function Attrs: inlinehint mustprogress nounwind uwtable
define linkonce_odr hidden noundef ptr @_Z6to_varP3ast(ptr noundef %0) #6 comdat {
  %2 = alloca ptr, align 8
  store ptr %0, ptr %2, align 8, !tbaa !283
  %3 = load ptr, ptr %2, align 8, !tbaa !283
  ret ptr %3
}

; Function Attrs: inlinehint mustprogress uwtable
define linkonce_odr hidden noundef zeroext i1 @_Z6is_varPK3ast(ptr noundef %0) #8 comdat {
  %2 = alloca ptr, align 8
  store ptr %0, ptr %2, align 8, !tbaa !283
  %3 = load ptr, ptr %2, align 8, !tbaa !283
  %4 = call noundef i32 @_ZNK3ast8get_kindEv(ptr noundef nonnull align 4 dereferenceable(16) %3)
  %5 = icmp eq i32 %4, 1
  ret i1 %5
}

; Function Attrs: mustprogress nounwind uwtable
define linkonce_odr hidden noundef ptr @_ZNK3app7get_argEj(ptr noundef nonnull align 8 dereferenceable(32) %0, i32 noundef %1) #5 comdat align 2 {
  %3 = alloca ptr, align 8
  %4 = alloca i32, align 4
  store ptr %0, ptr %3, align 8, !tbaa !265
  store i32 %1, ptr %4, align 4, !tbaa !50
  %5 = load ptr, ptr %3, align 8
  %6 = getelementptr inbounds nuw %class.app, ptr %5, i32 0, i32 4
  %7 = load i32, ptr %4, align 4, !tbaa !50
  %8 = zext i32 %7 to i64
  %9 = getelementptr inbounds nuw [0 x ptr], ptr %6, i64 0, i64 %8
  %10 = load ptr, ptr %9, align 8, !tbaa !272
  ret ptr %10
}

; Function Attrs: mustprogress nounwind uwtable
define linkonce_odr hidden noundef i32 @_ZNK3app12get_num_argsEv(ptr noundef nonnull align 8 dereferenceable(32) %0) #5 comdat align 2 {
  %2 = alloca ptr, align 8
  store ptr %0, ptr %2, align 8, !tbaa !265
  %3 = load ptr, ptr %2, align 8
  %4 = getelementptr inbounds nuw %class.app, ptr %3, i32 0, i32 2
  %5 = load i32, ptr %4, align 8, !tbaa !279
  ret i32 %5
}

; Function Attrs: mustprogress uwtable
define linkonce_odr hidden noundef nonnull align 8 dereferenceable(16) ptr @_ZN7datalog8mk_slice19get_predicate_sliceEP3app(ptr noundef nonnull align 8 dereferenceable(168) %0, ptr noundef %1) #4 comdat align 2 {
  %3 = alloca ptr, align 8
  %4 = alloca ptr, align 8
  store ptr %0, ptr %3, align 8, !tbaa !3
  store ptr %1, ptr %4, align 8, !tbaa !265
  %5 = load ptr, ptr %3, align 8
  %6 = load ptr, ptr %4, align 8, !tbaa !265
  %7 = call noundef ptr @_ZNK3app8get_declEv(ptr noundef nonnull align 8 dereferenceable(32) %6)
  %8 = call noundef nonnull align 8 dereferenceable(16) ptr @_ZN7datalog8mk_slice19get_predicate_sliceEP9func_decl(ptr noundef nonnull align 8 dereferenceable(168) %5, ptr noundef %7)
  ret ptr %8
}

; Function Attrs: mustprogress uwtable
define hidden noundef zeroext i1 @_ZN7datalog8mk_slice13finalize_varsEP3app(ptr noundef nonnull align 8 dereferenceable(168) %0, ptr noundef %1) #4 align 2 {
  %3 = alloca ptr, align 8
  %4 = alloca ptr, align 8
  %5 = alloca i8, align 1
  %6 = alloca ptr, align 8
  %7 = alloca i32, align 4
  %8 = alloca ptr, align 8
  store ptr %0, ptr %3, align 8, !tbaa !3
  store ptr %1, ptr %4, align 8, !tbaa !265
  %9 = load ptr, ptr %3, align 8
  call void @llvm.lifetime.start.p0(i64 1, ptr %5) #3
  store i8 0, ptr %5, align 1, !tbaa !51
  call void @llvm.lifetime.start.p0(i64 8, ptr %6) #3
  %10 = load ptr, ptr %4, align 8, !tbaa !265
  %11 = call noundef nonnull align 8 dereferenceable(16) ptr @_ZN7datalog8mk_slice19get_predicate_sliceEP3app(ptr noundef nonnull align 8 dereferenceable(168) %9, ptr noundef %10)
  store ptr %11, ptr %6, align 8, !tbaa !246
  call void @llvm.lifetime.start.p0(i64 4, ptr %7) #3
  store i32 0, ptr %7, align 4, !tbaa !50
  br label %12

12:                                               ; preds = %40, %2
  %13 = load i32, ptr %7, align 4, !tbaa !50
  %14 = load ptr, ptr %4, align 8, !tbaa !265
  %15 = call noundef i32 @_ZNK3app12get_num_argsEv(ptr noundef nonnull align 8 dereferenceable(32) %14)
  %16 = icmp ult i32 %13, %15
  br i1 %16, label %18, label %17

17:                                               ; preds = %12
  call void @llvm.lifetime.end.p0(i64 4, ptr %7) #3
  br label %43

18:                                               ; preds = %12
  call void @llvm.lifetime.start.p0(i64 8, ptr %8) #3
  %19 = load ptr, ptr %4, align 8, !tbaa !265
  %20 = load i32, ptr %7, align 4, !tbaa !50
  %21 = call noundef ptr @_ZNK3app7get_argEj(ptr noundef nonnull align 8 dereferenceable(32) %19, i32 noundef %20)
  store ptr %21, ptr %8, align 8, !tbaa !272
  %22 = load ptr, ptr %8, align 8, !tbaa !272
  %23 = call noundef zeroext i1 @_Z6is_varPK3ast(ptr noundef %22)
  br i1 %23, label %24, label %39

24:                                               ; preds = %18
  %25 = getelementptr inbounds nuw %"class.datalog::mk_slice", ptr %9, i32 0, i32 7
  %26 = load ptr, ptr %8, align 8, !tbaa !272
  %27 = call noundef ptr @_Z6to_varP3ast(ptr noundef %26)
  %28 = call noundef i32 @_ZNK3var7get_idxEv(ptr noundef nonnull align 8 dereferenceable(32) %27)
  %29 = call noundef nonnull align 1 dereferenceable(1) ptr @_ZN6vectorIbLb0EjEixEj(ptr noundef nonnull align 8 dereferenceable(8) %25, i32 noundef %28)
  %30 = load i8, ptr %29, align 1, !tbaa !51, !range !53, !noundef !54
  %31 = trunc i8 %30 to i1
  br i1 %31, label %39, label %32

32:                                               ; preds = %24
  %33 = load ptr, ptr %6, align 8, !tbaa !246
  %34 = load i32, ptr %7, align 4, !tbaa !50
  %35 = call noundef zeroext i1 @_ZNK10bit_vector3getEj(ptr noundef nonnull align 8 dereferenceable(16) %33, i32 noundef %34)
  br i1 %35, label %36, label %39

36:                                               ; preds = %32
  %37 = load ptr, ptr %6, align 8, !tbaa !246
  %38 = load i32, ptr %7, align 4, !tbaa !50
  call void @_ZN10bit_vector5unsetEj(ptr noundef nonnull align 8 dereferenceable(16) %37, i32 noundef %38)
  store i8 1, ptr %5, align 1, !tbaa !51
  br label %39

39:                                               ; preds = %36, %32, %24, %18
  call void @llvm.lifetime.end.p0(i64 8, ptr %8) #3
  br label %40

40:                                               ; preds = %39
  %41 = load i32, ptr %7, align 4, !tbaa !50
  %42 = add i32 %41, 1
  store i32 %42, ptr %7, align 4, !tbaa !50
  br label %12, !llvm.loop !308

43:                                               ; preds = %17
  %44 = load i8, ptr %5, align 1, !tbaa !51, !range !53, !noundef !54
  %45 = trunc i8 %44 to i1
  call void @llvm.lifetime.end.p0(i64 8, ptr %6) #3
  call void @llvm.lifetime.end.p0(i64 1, ptr %5) #3
  ret i1 %45
}