; Function Attrs: mustprogress uwtable
define hidden noundef zeroext i1 @_ZN7datalog8mk_slice13finalize_varsEP3app(ptr noundef nonnull align 8 dereferenceable(168) %0, ptr noundef readonly captures(none) %1) local_unnamed_addr #3 align 2 {
  %3 = getelementptr inbounds nuw i8, ptr %1, i64 16
  %4 = load ptr, ptr %3, align 8, !tbaa !263
  %5 = tail call noundef nonnull align 8 dereferenceable(16) ptr @_ZN7datalog8mk_slice19get_predicate_sliceEP9func_decl(ptr noundef nonnull align 8 dereferenceable(168) %0, ptr noundef %4)
  %6 = getelementptr inbounds nuw i8, ptr %1, i64 24
  %7 = load i32, ptr %6, align 8, !tbaa !267
  %.not16 = icmp eq i32 %7, 0
  br i1 %.not16, label %._crit_edge, label %.lr.ph

.lr.ph:                                           ; preds = %2
  %8 = getelementptr inbounds nuw i8, ptr %1, i64 32
  %9 = getelementptr inbounds nuw i8, ptr %0, i64 80
  %10 = load ptr, ptr %9, align 8
  %11 = getelementptr inbounds nuw i8, ptr %5, i64 8
  %12 = load ptr, ptr %11, align 8
  br label %13

._crit_edge:                                      ; preds = %39, %2
  %.0.lcssa = phi i1 [ false, %2 ], [ %.1, %39 ]
  ret i1 %.0.lcssa

13:                                               ; preds = %.lr.ph, %39
  %14 = phi i32 [ %7, %.lr.ph ], [ %40, %39 ]
  %indvars.iv = phi i64 [ 0, %.lr.ph ], [ %indvars.iv.next, %39 ]
  %.015 = phi i1 [ false, %.lr.ph ], [ %.1, %39 ]
  %15 = getelementptr inbounds nuw [0 x ptr], ptr %8, i64 0, i64 %indvars.iv
  %16 = load ptr, ptr %15, align 8, !tbaa !232
  %17 = getelementptr inbounds nuw i8, ptr %16, i64 4
  %18 = load i32, ptr %17, align 4
  %19 = and i32 %18, 65535
  %20 = icmp eq i32 %19, 1
  br i1 %20, label %21, label %39

21:                                               ; preds = %13
  %22 = getelementptr inbounds nuw i8, ptr %16, i64 16
  %23 = load i32, ptr %22, align 8, !tbaa !277
  %24 = zext i32 %23 to i64
  %25 = getelementptr inbounds nuw i8, ptr %10, i64 %24
  %26 = load i8, ptr %25, align 1, !tbaa !275, !range !279, !noundef !280
  %27 = trunc nuw i8 %26 to i1
  br i1 %27, label %39, label %28

28:                                               ; preds = %21
  %29 = trunc nuw i64 %indvars.iv to i32
  %30 = lshr i64 %indvars.iv, 5
  %31 = getelementptr inbounds nuw i32, ptr %12, i64 %30
  %32 = load i32, ptr %31, align 4, !tbaa !231
  %33 = and i32 %29, 31
  %34 = shl nuw i32 1, %33
  %35 = and i32 %32, %34
  %.not = icmp eq i32 %35, 0
  br i1 %.not, label %39, label %36

36:                                               ; preds = %28
  %37 = xor i32 %34, -1
  %38 = and i32 %32, %37
  store i32 %38, ptr %31, align 4, !tbaa !231
  %.pre = load i32, ptr %6, align 8, !tbaa !267
  br label %39

39:                                               ; preds = %36, %28, %21, %13
  %40 = phi i32 [ %14, %21 ], [ %.pre, %36 ], [ %14, %28 ], [ %14, %13 ]
  %.1 = phi i1 [ %.015, %21 ], [ true, %36 ], [ %.015, %28 ], [ %.015, %13 ]
  %indvars.iv.next = add nuw nsw i64 %indvars.iv, 1
  %41 = zext i32 %40 to i64
  %42 = icmp samesign ult i64 %indvars.iv.next, %41
  br i1 %42, label %13, label %._crit_edge, !llvm.loop !281
}